target datalayout = "e-m:e-p270:32:32-p271:32:32-p272:64:64-i64:64-i128:128-f80:128-n8:16:32:64-S128"
target triple = "x86_64-pc-linux-gnu"

%struct.bio_mmsg_cb_args_st = type { ptr, i64, i64, i64, ptr }
%struct.bio_msg_st = type { ptr, i64, ptr, ptr, i64 }

@.str.38 = private unnamed_addr constant [46 x i8] c"read from %p [%p] (%zu bytes => %zu (0x%zX))\0A\00", align 1
@.str.39 = private unnamed_addr constant [37 x i8] c"read from %p [%p] (%zu bytes => %d)\0A\00", align 1
@.str.40 = private unnamed_addr constant [45 x i8] c"write to %p [%p] (%zu bytes => %zu (0x%zX))\0A\00", align 1
@.str.41 = private unnamed_addr constant [36 x i8] c"write to %p [%p] (%zu bytes => %d)\0A\00", align 1

; Function Attrs: nounwind uwtable
define i64 @bio_dump_callback(ptr noundef %0, i32 noundef %1, ptr noundef %2, i64 noundef %3, i32 noundef %4, i64 noundef %5, i32 noundef %6, ptr noundef %7) #0 {
  %9 = alloca i64, align 8
  %10 = alloca ptr, align 8
  %11 = alloca i32, align 4
  %12 = alloca ptr, align 8
  %13 = alloca i64, align 8
  %14 = alloca i32, align 4
  %15 = alloca i64, align 8
  %16 = alloca i32, align 4
  %17 = alloca ptr, align 8
  %18 = alloca ptr, align 8
  %19 = alloca ptr, align 8
  %20 = alloca i64, align 8
  %21 = alloca i32, align 4
  %22 = alloca ptr, align 8
  %23 = alloca ptr, align 8
  %24 = alloca ptr, align 8
  %25 = alloca ptr, align 8
  store ptr %0, ptr %10, align 8, !tbaa !14
  store i32 %1, ptr %11, align 4, !tbaa !3
  store ptr %2, ptr %12, align 8, !tbaa !21
  store i64 %3, ptr %13, align 8, !tbaa !38
  store i32 %4, ptr %14, align 4, !tbaa !3
  store i64 %5, ptr %15, align 8, !tbaa !38
  store i32 %6, ptr %16, align 4, !tbaa !3
  store ptr %7, ptr %17, align 8, !tbaa !40
  call void @llvm.lifetime.start.p0(i64 8, ptr %18) #10
  call void @llvm.lifetime.start.p0(i64 8, ptr %19) #10
  call void @llvm.lifetime.start.p0(i64 8, ptr %20) #10
  %26 = load ptr, ptr %10, align 8, !tbaa !14
  %27 = call ptr @BIO_get_callback_arg(ptr noundef %26)
  store ptr %27, ptr %18, align 8, !tbaa !14
  %28 = load ptr, ptr %18, align 8, !tbaa !14
  %29 = icmp eq ptr %28, null
  br i1 %29, label %30, label %33

30:                                               ; preds = %8
  %31 = load i32, ptr %16, align 4, !tbaa !3
  %32 = sext i32 %31 to i64
  store i64 %32, ptr %9, align 8
  store i32 1, ptr %21, align 4
  br label %241

33:                                               ; preds = %8
  %34 = load i32, ptr %11, align 4, !tbaa !3
  switch i32 %34, label %237 [
    i32 130, label %35
    i32 131, label %65
    i32 135, label %95
    i32 136, label %166
  ]

35:                                               ; preds = %33
  %36 = load i32, ptr %16, align 4, !tbaa !3
  %37 = icmp sgt i32 %36, 0
  br i1 %37, label %38, label %57

38:                                               ; preds = %35
  %39 = load ptr, ptr %17, align 8, !tbaa !40
  %40 = icmp ne ptr %39, null
  br i1 %40, label %41, label %57

41:                                               ; preds = %38
  %42 = load ptr, ptr %18, align 8, !tbaa !14
  %43 = load ptr, ptr %10, align 8, !tbaa !14
  %44 = load ptr, ptr %12, align 8, !tbaa !21
  %45 = load i64, ptr %13, align 8, !tbaa !38
  %46 = load ptr, ptr %17, align 8, !tbaa !40
  %47 = load i64, ptr %46, align 8, !tbaa !38
  %48 = load ptr, ptr %17, align 8, !tbaa !40
  %49 = load i64, ptr %48, align 8, !tbaa !38
  %50 = call i32 (ptr, ptr, ...) @BIO_printf(ptr noundef %42, ptr noundef @.str.38, ptr noundef %43, ptr noundef %44, i64 noundef %45, i64 noundef %47, i64 noundef %49)
  %51 = load ptr, ptr %18, align 8, !tbaa !14
  %52 = load ptr, ptr %12, align 8, !tbaa !21
  %53 = load ptr, ptr %17, align 8, !tbaa !40
  %54 = load i64, ptr %53, align 8, !tbaa !38
  %55 = trunc i64 %54 to i32
  %56 = call i32 @BIO_dump(ptr noundef %51, ptr noundef %52, i32 noundef %55)
  br label %64

57:                                               ; preds = %38, %35
  %58 = load ptr, ptr %18, align 8, !tbaa !14
  %59 = load ptr, ptr %10, align 8, !tbaa !14
  %60 = load ptr, ptr %12, align 8, !tbaa !21
  %61 = load i64, ptr %13, align 8, !tbaa !38
  %62 = load i32, ptr %16, align 4, !tbaa !3
  %63 = call i32 (ptr, ptr, ...) @BIO_printf(ptr noundef %58, ptr noundef @.str.39, ptr noundef %59, ptr noundef %60, i64 noundef %61, i32 noundef %62)
  br label %64

64:                                               ; preds = %57, %41
  br label %238

65:                                               ; preds = %33
  %66 = load i32, ptr %16, align 4, !tbaa !3
  %67 = icmp sgt i32 %66, 0
  br i1 %67, label %68, label %87

68:                                               ; preds = %65
  %69 = load ptr, ptr %17, align 8, !tbaa !40
  %70 = icmp ne ptr %69, null
  br i1 %70, label %71, label %87

71:                                               ; preds = %68
  %72 = load ptr, ptr %18, align 8, !tbaa !14
  %73 = load ptr, ptr %10, align 8, !tbaa !14
  %74 = load ptr, ptr %12, align 8, !tbaa !21
  %75 = load i64, ptr %13, align 8, !tbaa !38
  %76 = load ptr, ptr %17, align 8, !tbaa !40
  %77 = load i64, ptr %76, align 8, !tbaa !38
  %78 = load ptr, ptr %17, align 8, !tbaa !40
  %79 = load i64, ptr %78, align 8, !tbaa !38
  %80 = call i32 (ptr, ptr, ...) @BIO_printf(ptr noundef %72, ptr noundef @.str.40, ptr noundef %73, ptr noundef %74, i64 noundef %75, i64 noundef %77, i64 noundef %79)
  %81 = load ptr, ptr %18, align 8, !tbaa !14
  %82 = load ptr, ptr %12, align 8, !tbaa !21
  %83 = load ptr, ptr %17, align 8, !tbaa !40
  %84 = load i64, ptr %83, align 8, !tbaa !38
  %85 = trunc i64 %84 to i32
  %86 = call i32 @BIO_dump(ptr noundef %81, ptr noundef %82, i32 noundef %85)
  br label %94

87:                                               ; preds = %68, %65
  %88 = load ptr, ptr %18, align 8, !tbaa !14
  %89 = load ptr, ptr %10, align 8, !tbaa !14
  %90 = load ptr, ptr %12, align 8, !tbaa !21
  %91 = load i64, ptr %13, align 8, !tbaa !38
  %92 = load i32, ptr %16, align 4, !tbaa !3
  %93 = call i32 (ptr, ptr, ...) @BIO_printf(ptr noundef %88, ptr noundef @.str.41, ptr noundef %89, ptr noundef %90, i64 noundef %91, i32 noundef %92)
  br label %94

94:                                               ; preds = %87, %71
  br label %238

95:                                               ; preds = %33
  %96 = load ptr, ptr %12, align 8, !tbaa !21
  store ptr %96, ptr %19, align 8, !tbaa !42
  %97 = load i32, ptr %16, align 4, !tbaa !3
  %98 = icmp sgt i32 %97, 0
  br i1 %98, label %99, label %145

99:                                               ; preds = %95
  store i64 0, ptr %20, align 8, !tbaa !38
  br label %100

100:                                              ; preds = %141, %99
  %101 = load i64, ptr %20, align 8, !tbaa !38
  %102 = load ptr, ptr %19, align 8, !tbaa !42
  %103 = getelementptr inbounds nuw %struct.bio_mmsg_cb_args_st, ptr %102, i32 0, i32 4
  %104 = load ptr, ptr %103, align 8, !tbaa !44
  %105 = load i64, ptr %104, align 8, !tbaa !38
  %106 = icmp ult i64 %101, %105
  br i1 %106, label %107, label %144

107:                                              ; preds = %100
  call void @llvm.lifetime.start.p0(i64 8, ptr %22) #10
  %108 = load ptr, ptr %19, align 8, !tbaa !42
  %109 = getelementptr inbounds nuw %struct.bio_mmsg_cb_args_st, ptr %108, i32 0, i32 0
  %110 = load ptr, ptr %109, align 8, !tbaa !47
  %111 = load i64, ptr %20, align 8, !tbaa !38
  %112 = load ptr, ptr %19, align 8, !tbaa !42
  %113 = getelementptr inbounds nuw %struct.bio_mmsg_cb_args_st, ptr %112, i32 0, i32 1
  %114 = load i64, ptr %113, align 8, !tbaa !48
  %115 = mul i64 %111, %114
  %116 = getelementptr inbounds nuw i8, ptr %110, i64 %115
  store ptr %116, ptr %22, align 8, !tbaa !49
  %117 = load ptr, ptr %18, align 8, !tbaa !14
  %118 = load ptr, ptr %10, align 8, !tbaa !14
  %119 = load ptr, ptr %22, align 8, !tbaa !49
  %120 = getelementptr inbounds nuw %struct.bio_msg_st, ptr %119, i32 0, i32 0
  %121 = load ptr, ptr %120, align 8, !tbaa !50
  %122 = load ptr, ptr %22, align 8, !tbaa !49
  %123 = getelementptr inbounds nuw %struct.bio_msg_st, ptr %122, i32 0, i32 1
  %124 = load i64, ptr %123, align 8, !tbaa !53
  %125 = load ptr, ptr %22, align 8, !tbaa !49
  %126 = getelementptr inbounds nuw %struct.bio_msg_st, ptr %125, i32 0, i32 1
  %127 = load i64, ptr %126, align 8, !tbaa !53
  %128 = load ptr, ptr %22, align 8, !tbaa !49
  %129 = getelementptr inbounds nuw %struct.bio_msg_st, ptr %128, i32 0, i32 1
  %130 = load i64, ptr %129, align 8, !tbaa !53
  %131 = call i32 (ptr, ptr, ...) @BIO_printf(ptr noundef %117, ptr noundef @.str.38, ptr noundef %118, ptr noundef %121, i64 noundef %124, i64 noundef %127, i64 noundef %130)
  %132 = load ptr, ptr %18, align 8, !tbaa !14
  %133 = load ptr, ptr %22, align 8, !tbaa !49
  %134 = getelementptr inbounds nuw %struct.bio_msg_st, ptr %133, i32 0, i32 0
  %135 = load ptr, ptr %134, align 8, !tbaa !50
  %136 = load ptr, ptr %22, align 8, !tbaa !49
  %137 = getelementptr inbounds nuw %struct.bio_msg_st, ptr %136, i32 0, i32 1
  %138 = load i64, ptr %137, align 8, !tbaa !53
  %139 = trunc i64 %138 to i32
  %140 = call i32 @BIO_dump(ptr noundef %132, ptr noundef %135, i32 noundef %139)
  call void @llvm.lifetime.end.p0(i64 8, ptr %22) #10
  br label %141

141:                                              ; preds = %107
  %142 = load i64, ptr %20, align 8, !tbaa !38
  %143 = add i64 %142, 1
  store i64 %143, ptr %20, align 8, !tbaa !38
  br label %100, !llvm.loop !54

144:                                              ; preds = %100
  br label %165

145:                                              ; preds = %95
  %146 = load ptr, ptr %19, align 8, !tbaa !42
  %147 = getelementptr inbounds nuw %struct.bio_mmsg_cb_args_st, ptr %146, i32 0, i32 2
  %148 = load i64, ptr %147, align 8, !tbaa !55
  %149 = icmp ugt i64 %148, 0
  br i1 %149, label %150, label %164

150:                                              ; preds = %145
  call void @llvm.lifetime.start.p0(i64 8, ptr %23) #10
  %151 = load ptr, ptr %19, align 8, !tbaa !42
  %152 = getelementptr inbounds nuw %struct.bio_mmsg_cb_args_st, ptr %151, i32 0, i32 0
  %153 = load ptr, ptr %152, align 8, !tbaa !47
  store ptr %153, ptr %23, align 8, !tbaa !49
  %154 = load ptr, ptr %18, align 8, !tbaa !14
  %155 = load ptr, ptr %10, align 8, !tbaa !14
  %156 = load ptr, ptr %23, align 8, !tbaa !49
  %157 = getelementptr inbounds nuw %struct.bio_msg_st, ptr %156, i32 0, i32 0
  %158 = load ptr, ptr %157, align 8, !tbaa !50
  %159 = load ptr, ptr %23, align 8, !tbaa !49
  %160 = getelementptr inbounds nuw %struct.bio_msg_st, ptr %159, i32 0, i32 1
  %161 = load i64, ptr %160, align 8, !tbaa !53
  %162 = load i32, ptr %16, align 4, !tbaa !3
  %163 = call i32 (ptr, ptr, ...) @BIO_printf(ptr noundef %154, ptr noundef @.str.39, ptr noundef %155, ptr noundef %158, i64 noundef %161, i32 noundef %162)
  call void @llvm.lifetime.end.p0(i64 8, ptr %23) #10
  br label %164

164:                                              ; preds = %150, %145
  br label %165

165:                                              ; preds = %164, %144
  br label %238

166:                                              ; preds = %33
  %167 = load ptr, ptr %12, align 8, !tbaa !21
  store ptr %167, ptr %19, align 8, !tbaa !42
  %168 = load i32, ptr %16, align 4, !tbaa !3
  %169 = icmp sgt i32 %168, 0
  br i1 %169, label %170, label %216

170:                                              ; preds = %166
  store i64 0, ptr %20, align 8, !tbaa !38
  br label %171

171:                                              ; preds = %212, %170
  %172 = load i64, ptr %20, align 8, !tbaa !38
  %173 = load ptr, ptr %19, align 8, !tbaa !42
  %174 = getelementptr inbounds nuw %struct.bio_mmsg_cb_args_st, ptr %173, i32 0, i32 4
  %175 = load ptr, ptr %174, align 8, !tbaa !44
  %176 = load i64, ptr %175, align 8, !tbaa !38
  %177 = icmp ult i64 %172, %176
  br i1 %177, label %178, label %215

178:                                              ; preds = %171
  call void @llvm.lifetime.start.p0(i64 8, ptr %24) #10
  %179 = load ptr, ptr %19, align 8, !tbaa !42
  %180 = getelementptr inbounds nuw %struct.bio_mmsg_cb_args_st, ptr %179, i32 0, i32 0
  %181 = load ptr, ptr %180, align 8, !tbaa !47
  %182 = load i64, ptr %20, align 8, !tbaa !38
  %183 = load ptr, ptr %19, align 8, !tbaa !42
  %184 = getelementptr inbounds nuw %struct.bio_mmsg_cb_args_st, ptr %183, i32 0, i32 1
  %185 = load i64, ptr %184, align 8, !tbaa !48
  %186 = mul i64 %182, %185
  %187 = getelementptr inbounds nuw i8, ptr %181, i64 %186
  store ptr %187, ptr %24, align 8, !tbaa !49
  %188 = load ptr, ptr %18, align 8, !tbaa !14
  %189 = load ptr, ptr %10, align 8, !tbaa !14
  %190 = load ptr, ptr %24, align 8, !tbaa !49
  %191 = getelementptr inbounds nuw %struct.bio_msg_st, ptr %190, i32 0, i32 0
  %192 = load ptr, ptr %191, align 8, !tbaa !50
  %193 = load ptr, ptr %24, align 8, !tbaa !49
  %194 = getelementptr inbounds nuw %struct.bio_msg_st, ptr %193, i32 0, i32 1
  %195 = load i64, ptr %194, align 8, !tbaa !53
  %196 = load ptr, ptr %24, align 8, !tbaa !49
  %197 = getelementptr inbounds nuw %struct.bio_msg_st, ptr %196, i32 0, i32 1
  %198 = load i64, ptr %197, align 8, !tbaa !53
  %199 = load ptr, ptr %24, align 8, !tbaa !49
  %200 = getelementptr inbounds nuw %struct.bio_msg_st, ptr %199, i32 0, i32 1
  %201 = load i64, ptr %200, align 8, !tbaa !53
  %202 = call i32 (ptr, ptr, ...) @BIO_printf(ptr noundef %188, ptr noundef @.str.40, ptr noundef %189, ptr noundef %192, i64 noundef %195, i64 noundef %198, i64 noundef %201)
  %203 = load ptr, ptr %18, align 8, !tbaa !14
  %204 = load ptr, ptr %24, align 8, !tbaa !49
  %205 = getelementptr inbounds nuw %struct.bio_msg_st, ptr %204, i32 0, i32 0
  %206 = load ptr, ptr %205, align 8, !tbaa !50
  %207 = load ptr, ptr %24, align 8, !tbaa !49
  %208 = getelementptr inbounds nuw %struct.bio_msg_st, ptr %207, i32 0, i32 1
  %209 = load i64, ptr %208, align 8, !tbaa !53
  %210 = trunc i64 %209 to i32
  %211 = call i32 @BIO_dump(ptr noundef %203, ptr noundef %206, i32 noundef %210)
  call void @llvm.lifetime.end.p0(i64 8, ptr %24) #10
  br label %212

212:                                              ; preds = %178
  %213 = load i64, ptr %20, align 8, !tbaa !38
  %214 = add i64 %213, 1
  store i64 %214, ptr %20, align 8, !tbaa !38
  br label %171, !llvm.loop !56

215:                                              ; preds = %171
  br label %236

216:                                              ; preds = %166
  %217 = load ptr, ptr %19, align 8, !tbaa !42
  %218 = getelementptr inbounds nuw %struct.bio_mmsg_cb_args_st, ptr %217, i32 0, i32 2
  %219 = load i64, ptr %218, align 8, !tbaa !55
  %220 = icmp ugt i64 %219, 0
  br i1 %220, label %221, label %235

221:                                              ; preds = %216
  call void @llvm.lifetime.start.p0(i64 8, ptr %25) #10
  %222 = load ptr, ptr %19, align 8, !tbaa !42
  %223 = getelementptr inbounds nuw %struct.bio_mmsg_cb_args_st, ptr %222, i32 0, i32 0
  %224 = load ptr, ptr %223, align 8, !tbaa !47
  store ptr %224, ptr %25, align 8, !tbaa !49
  %225 = load ptr, ptr %18, align 8, !tbaa !14
  %226 = load ptr, ptr %10, align 8, !tbaa !14
  %227 = load ptr, ptr %25, align 8, !tbaa !49
  %228 = getelementptr inbounds nuw %struct.bio_msg_st, ptr %227, i32 0, i32 0
  %229 = load ptr, ptr %228, align 8, !tbaa !50
  %230 = load ptr, ptr %25, align 8, !tbaa !49
  %231 = getelementptr inbounds nuw %struct.bio_msg_st, ptr %230, i32 0, i32 1
  %232 = load i64, ptr %231, align 8, !tbaa !53
  %233 = load i32, ptr %16, align 4, !tbaa !3
  %234 = call i32 (ptr, ptr, ...) @BIO_printf(ptr noundef %225, ptr noundef @.str.41, ptr noundef %226, ptr noundef %229, i64 noundef %232, i32 noundef %233)
  call void @llvm.lifetime.end.p0(i64 8, ptr %25) #10
  br label %235

235:                                              ; preds = %221, %216
  br label %236

236:                                              ; preds = %235, %215
  br label %238

237:                                              ; preds = %33
  br label %238

238:                                              ; preds = %237, %236, %165, %94, %64
  %239 = load i32, ptr %16, align 4, !tbaa !3
  %240 = sext i32 %239 to i64
  store i64 %240, ptr %9, align 8
  store i32 1, ptr %21, align 4
  br label %241

241:                                              ; preds = %238, %30
  call void @llvm.lifetime.end.p0(i64 8, ptr %20) #10
  call void @llvm.lifetime.end.p0(i64 8, ptr %19) #10
  call void @llvm.lifetime.end.p0(i64 8, ptr %18) #10
  %242 = load i64, ptr %9, align 8
  ret i64 %242
}