; Function Attrs: nounwind uwtable
define range(i64 -2147483648, 2147483648) i64 @bio_dump_callback(ptr noundef %0, i32 noundef %1, ptr noundef %2, i64 noundef %3, i32 noundef %4, i64 noundef %5, i32 noundef %6, ptr noundef readonly captures(address_is_null) %7) local_unnamed_addr #0 {
  %9 = tail call ptr @BIO_get_callback_arg(ptr noundef %0) #6
  %10 = icmp eq ptr %9, null
  br i1 %10, label %.loopexit, label %11

11:                                               ; preds = %8
  switch i32 %1, label %.loopexit [
    i32 130, label %12
    i32 131, label %23
    i32 135, label %34
    i32 136, label %66
  ]

12:                                               ; preds = %11
  %13 = icmp sgt i32 %6, 0
  %14 = icmp ne ptr %7, null
  %or.cond = and i1 %13, %14
  br i1 %or.cond, label %15, label %21

15:                                               ; preds = %12
  %16 = load i64, ptr %7, align 8, !tbaa !29
  %17 = tail call i32 (ptr, ptr, ...) @BIO_printf(ptr noundef nonnull %9, ptr noundef nonnull @.str.38, ptr noundef %0, ptr noundef %2, i64 noundef %3, i64 noundef %16, i64 noundef %16) #6
  %18 = load i64, ptr %7, align 8, !tbaa !29
  %19 = trunc i64 %18 to i32
  %20 = tail call i32 @BIO_dump(ptr noundef nonnull %9, ptr noundef %2, i32 noundef %19) #6
  br label %.loopexit

21:                                               ; preds = %12
  %22 = tail call i32 (ptr, ptr, ...) @BIO_printf(ptr noundef nonnull %9, ptr noundef nonnull @.str.39, ptr noundef %0, ptr noundef %2, i64 noundef %3, i32 noundef %6) #6
  br label %.loopexit

23:                                               ; preds = %11
  %24 = icmp sgt i32 %6, 0
  %25 = icmp ne ptr %7, null
  %or.cond3 = and i1 %24, %25
  br i1 %or.cond3, label %26, label %32

26:                                               ; preds = %23
  %27 = load i64, ptr %7, align 8, !tbaa !29
  %28 = tail call i32 (ptr, ptr, ...) @BIO_printf(ptr noundef nonnull %9, ptr noundef nonnull @.str.40, ptr noundef %0, ptr noundef %2, i64 noundef %3, i64 noundef %27, i64 noundef %27) #6
  %29 = load i64, ptr %7, align 8, !tbaa !29
  %30 = trunc i64 %29 to i32
  %31 = tail call i32 @BIO_dump(ptr noundef nonnull %9, ptr noundef %2, i32 noundef %30) #6
  br label %.loopexit

32:                                               ; preds = %23
  %33 = tail call i32 (ptr, ptr, ...) @BIO_printf(ptr noundef nonnull %9, ptr noundef nonnull @.str.41, ptr noundef %0, ptr noundef %2, i64 noundef %3, i32 noundef %6) #6
  br label %.loopexit

34:                                               ; preds = %11
  %35 = icmp sgt i32 %6, 0
  br i1 %35, label %.preheader, label %57

.preheader:                                       ; preds = %34
  %36 = getelementptr inbounds nuw i8, ptr %2, i64 32
  %37 = load ptr, ptr %36, align 8, !tbaa !31
  %38 = load i64, ptr %37, align 8, !tbaa !29
  %.not101 = icmp eq i64 %38, 0
  br i1 %.not101, label %.loopexit, label %.lr.ph99

.lr.ph99:                                         ; preds = %.preheader
  %39 = getelementptr inbounds nuw i8, ptr %2, i64 8
  br label %40

40:                                               ; preds = %.lr.ph99, %40
  %.08898 = phi i64 [ 0, %.lr.ph99 ], [ %53, %40 ]
  %41 = load ptr, ptr %2, align 8, !tbaa !35
  %42 = load i64, ptr %39, align 8, !tbaa !36
  %43 = mul i64 %42, %.08898
  %44 = getelementptr inbounds nuw i8, ptr %41, i64 %43
  %45 = load ptr, ptr %44, align 8, !tbaa !37
  %46 = getelementptr inbounds nuw i8, ptr %44, i64 8
  %47 = load i64, ptr %46, align 8, !tbaa !40
  %48 = tail call i32 (ptr, ptr, ...) @BIO_printf(ptr noundef nonnull %9, ptr noundef nonnull @.str.38, ptr noundef %0, ptr noundef %45, i64 noundef %47, i64 noundef %47, i64 noundef %47) #6
  %49 = load ptr, ptr %44, align 8, !tbaa !37
  %50 = load i64, ptr %46, align 8, !tbaa !40
  %51 = trunc i64 %50 to i32
  %52 = tail call i32 @BIO_dump(ptr noundef nonnull %9, ptr noundef %49, i32 noundef %51) #6
  %53 = add nuw i64 %.08898, 1
  %54 = load ptr, ptr %36, align 8, !tbaa !31
  %55 = load i64, ptr %54, align 8, !tbaa !29
  %56 = icmp ult i64 %53, %55
  br i1 %56, label %40, label %.loopexit, !llvm.loop !41

57:                                               ; preds = %34
  %58 = getelementptr inbounds nuw i8, ptr %2, i64 16
  %59 = load i64, ptr %58, align 8, !tbaa !42
  %.not94 = icmp eq i64 %59, 0
  br i1 %.not94, label %.loopexit, label %60

60:                                               ; preds = %57
  %61 = load ptr, ptr %2, align 8, !tbaa !35
  %62 = load ptr, ptr %61, align 8, !tbaa !37
  %63 = getelementptr inbounds nuw i8, ptr %61, i64 8
  %64 = load i64, ptr %63, align 8, !tbaa !40
  %65 = tail call i32 (ptr, ptr, ...) @BIO_printf(ptr noundef nonnull %9, ptr noundef nonnull @.str.39, ptr noundef %0, ptr noundef %62, i64 noundef %64, i32 noundef %6) #6
  br label %.loopexit

66:                                               ; preds = %11
  %67 = icmp sgt i32 %6, 0
  br i1 %67, label %.preheader95, label %89

.preheader95:                                     ; preds = %66
  %68 = getelementptr inbounds nuw i8, ptr %2, i64 32
  %69 = load ptr, ptr %68, align 8, !tbaa !31
  %70 = load i64, ptr %69, align 8, !tbaa !29
  %.not100 = icmp eq i64 %70, 0
  br i1 %.not100, label %.loopexit, label %.lr.ph

.lr.ph:                                           ; preds = %.preheader95
  %71 = getelementptr inbounds nuw i8, ptr %2, i64 8
  br label %72

72:                                               ; preds = %.lr.ph, %72
  %.197 = phi i64 [ 0, %.lr.ph ], [ %85, %72 ]
  %73 = load ptr, ptr %2, align 8, !tbaa !35
  %74 = load i64, ptr %71, align 8, !tbaa !36
  %75 = mul i64 %74, %.197
  %76 = getelementptr inbounds nuw i8, ptr %73, i64 %75
  %77 = load ptr, ptr %76, align 8, !tbaa !37
  %78 = getelementptr inbounds nuw i8, ptr %76, i64 8
  %79 = load i64, ptr %78, align 8, !tbaa !40
  %80 = tail call i32 (ptr, ptr, ...) @BIO_printf(ptr noundef nonnull %9, ptr noundef nonnull @.str.40, ptr noundef %0, ptr noundef %77, i64 noundef %79, i64 noundef %79, i64 noundef %79) #6
  %81 = load ptr, ptr %76, align 8, !tbaa !37
  %82 = load i64, ptr %78, align 8, !tbaa !40
  %83 = trunc i64 %82 to i32
  %84 = tail call i32 @BIO_dump(ptr noundef nonnull %9, ptr noundef %81, i32 noundef %83) #6
  %85 = add nuw i64 %.197, 1
  %86 = load ptr, ptr %68, align 8, !tbaa !31
  %87 = load i64, ptr %86, align 8, !tbaa !29
  %88 = icmp ult i64 %85, %87
  br i1 %88, label %72, label %.loopexit, !llvm.loop !43

89:                                               ; preds = %66
  %90 = getelementptr inbounds nuw i8, ptr %2, i64 16
  %91 = load i64, ptr %90, align 8, !tbaa !42
  %.not = icmp eq i64 %91, 0
  br i1 %.not, label %.loopexit, label %92

92:                                               ; preds = %89
  %93 = load ptr, ptr %2, align 8, !tbaa !35
  %94 = load ptr, ptr %93, align 8, !tbaa !37
  %95 = getelementptr inbounds nuw i8, ptr %93, i64 8
  %96 = load i64, ptr %95, align 8, !tbaa !40
  %97 = tail call i32 (ptr, ptr, ...) @BIO_printf(ptr noundef nonnull %9, ptr noundef nonnull @.str.41, ptr noundef %0, ptr noundef %94, i64 noundef %96, i32 noundef %6) #6
  br label %.loopexit

.loopexit:                                        ; preds = %72, %40, %.preheader95, %.preheader, %21, %15, %32, %26, %57, %60, %89, %92, %11, %8
  %.0 = sext i32 %6 to i64
  ret i64 %.0
}